target datalayout = "e-m:e-p270:32:32-p271:32:32-p272:64:64-i64:64-i128:128-f80:128-n8:16:32:64-S128"
target triple = "x86_64-pc-linux-gnu"

%struct.PgStat_PendingIO = type { [3 x [5 x [8 x i64]]], [3 x [5 x [8 x i64]]], [3 x [5 x [8 x %struct.instr_time]]] }
%struct.instr_time = type { i64 }
%struct.PgStat_LocalState = type { ptr, ptr, ptr, %struct.PgStat_Snapshot }
%struct.PgStat_Snapshot = type { i32, i64, [13 x i8], %struct.PgStat_ArchiverStats, %struct.PgStat_BgWriterStats, %struct.PgStat_CheckpointerStats, %struct.PgStat_IO, [8 x %struct.PgStat_SLRUStats], %struct.PgStat_WalStats, [129 x i8], [129 x ptr], ptr, ptr }
%struct.PgStat_ArchiverStats = type { i64, [41 x i8], i64, i64, [41 x i8], i64, i64 }
%struct.PgStat_BgWriterStats = type { i64, i64, i64, i64 }
%struct.PgStat_CheckpointerStats = type { i64, i64, i64, i64, i64, i64, i64, i64, i64, i64, i64 }
%struct.PgStat_IO = type { i64, [17 x %struct.PgStat_BktypeIO] }
%struct.PgStat_BktypeIO = type { [3 x [5 x [8 x i64]]], [3 x [5 x [8 x i64]]], [3 x [5 x [8 x i64]]] }
%struct.PgStat_SLRUStats = type { i64, i64, i64, i64, i64, i64, i64, i64 }
%struct.PgStat_WalStats = type { i64, i64, i64, i64, i64, i64, i64, i64, i64 }
%struct.PgStat_ShmemControl = type { ptr, i64, i8, %struct.pg_atomic_uint64, %struct.PgStatShared_Archiver, %struct.PgStatShared_BgWriter, %struct.PgStatShared_Checkpointer, %struct.PgStatShared_IO, %struct.PgStatShared_SLRU, %struct.PgStatShared_Wal, [129 x ptr] }
%struct.pg_atomic_uint64 = type { i64 }
%struct.PgStatShared_Archiver = type { %struct.LWLock, i32, %struct.PgStat_ArchiverStats, %struct.PgStat_ArchiverStats }
%struct.LWLock = type { i16, %struct.pg_atomic_uint32, %struct.proclist_head }
%struct.pg_atomic_uint32 = type { i32 }
%struct.proclist_head = type { i32, i32 }
%struct.PgStatShared_BgWriter = type { %struct.LWLock, i32, %struct.PgStat_BgWriterStats, %struct.PgStat_BgWriterStats }
%struct.PgStatShared_Checkpointer = type { %struct.LWLock, i32, %struct.PgStat_CheckpointerStats, %struct.PgStat_CheckpointerStats }
%struct.PgStatShared_IO = type { [17 x %struct.LWLock], %struct.PgStat_IO }
%struct.PgStatShared_SLRU = type { %struct.LWLock, [8 x %struct.PgStat_SLRUStats] }
%struct.PgStatShared_Wal = type { %struct.LWLock, %struct.PgStat_WalStats }

@PendingIOStats = internal global %struct.PgStat_PendingIO zeroinitializer, align 8
@have_iostats = internal global i8 0, align 1
@pgStatLocal = external global %struct.PgStat_LocalState, align 8
@MyBackendType = external global i32, align 4

; Function Attrs: nounwind uwtable
define dso_local zeroext i1 @pgstat_io_flush_cb(i1 noundef zeroext %0) #0 {
  %2 = alloca i1, align 1
  %3 = alloca i8, align 1
  %4 = alloca ptr, align 8
  %5 = alloca ptr, align 8
  %6 = alloca i32, align 4
  %7 = alloca i32, align 4
  %8 = alloca i32, align 4
  %9 = alloca i32, align 4
  %10 = alloca %struct.instr_time, align 8
  %11 = zext i1 %0 to i8
  store i8 %11, ptr %3, align 1
  call void @llvm.lifetime.start.p0(i64 8, ptr %4) #8
  call void @llvm.lifetime.start.p0(i64 8, ptr %5) #8
  %12 = load i8, ptr @have_iostats, align 1, !range !8, !noundef !9
  %13 = trunc i8 %12 to i1
  br i1 %13, label %15, label %14

14:                                               ; preds = %1
  store i1 false, ptr %2, align 1
  store i32 1, ptr %6, align 4
  br label %139

15:                                               ; preds = %1
  %16 = load ptr, ptr @pgStatLocal, align 8
  %17 = getelementptr inbounds nuw %struct.PgStat_ShmemControl, ptr %16, i32 0, i32 7
  %18 = getelementptr inbounds nuw %struct.PgStatShared_IO, ptr %17, i32 0, i32 0
  %19 = load i32, ptr @MyBackendType, align 4
  %20 = zext i32 %19 to i64
  %21 = getelementptr inbounds nuw [17 x %struct.LWLock], ptr %18, i64 0, i64 %20
  store ptr %21, ptr %4, align 8
  %22 = load ptr, ptr @pgStatLocal, align 8
  %23 = getelementptr inbounds nuw %struct.PgStat_ShmemControl, ptr %22, i32 0, i32 7
  %24 = getelementptr inbounds nuw %struct.PgStatShared_IO, ptr %23, i32 0, i32 1
  %25 = getelementptr inbounds nuw %struct.PgStat_IO, ptr %24, i32 0, i32 1
  %26 = load i32, ptr @MyBackendType, align 4
  %27 = zext i32 %26 to i64
  %28 = getelementptr inbounds nuw [17 x %struct.PgStat_BktypeIO], ptr %25, i64 0, i64 %27
  store ptr %28, ptr %5, align 8
  %29 = load i8, ptr %3, align 1, !range !8, !noundef !9
  %30 = trunc i8 %29 to i1
  br i1 %30, label %34, label %31

31:                                               ; preds = %15
  %32 = load ptr, ptr %4, align 8
  %33 = call zeroext i1 @LWLockAcquire(ptr noundef %32, i32 noundef 0)
  br label %39

34:                                               ; preds = %15
  %35 = load ptr, ptr %4, align 8
  %36 = call zeroext i1 @LWLockConditionalAcquire(ptr noundef %35, i32 noundef 0)
  br i1 %36, label %38, label %37

37:                                               ; preds = %34
  store i1 true, ptr %2, align 1
  store i32 1, ptr %6, align 4
  br label %139

38:                                               ; preds = %34
  br label %39

39:                                               ; preds = %38, %31
  call void @llvm.lifetime.start.p0(i64 4, ptr %7) #8
  store i32 0, ptr %7, align 4
  br label %40

40:                                               ; preds = %134, %39
  %41 = load i32, ptr %7, align 4
  %42 = icmp slt i32 %41, 3
  br i1 %42, label %44, label %43

43:                                               ; preds = %40
  store i32 2, ptr %6, align 4
  call void @llvm.lifetime.end.p0(i64 4, ptr %7) #8
  br label %137

44:                                               ; preds = %40
  call void @llvm.lifetime.start.p0(i64 4, ptr %8) #8
  store i32 0, ptr %8, align 4
  br label %45

45:                                               ; preds = %130, %44
  %46 = load i32, ptr %8, align 4
  %47 = icmp slt i32 %46, 5
  br i1 %47, label %49, label %48

48:                                               ; preds = %45
  store i32 5, ptr %6, align 4
  call void @llvm.lifetime.end.p0(i64 4, ptr %8) #8
  br label %133

49:                                               ; preds = %45
  call void @llvm.lifetime.start.p0(i64 4, ptr %9) #8
  store i32 0, ptr %9, align 4
  br label %50

50:                                               ; preds = %126, %49
  %51 = load i32, ptr %9, align 4
  %52 = icmp slt i32 %51, 8
  br i1 %52, label %54, label %53

53:                                               ; preds = %50
  store i32 8, ptr %6, align 4
  call void @llvm.lifetime.end.p0(i64 4, ptr %9) #8
  br label %129

54:                                               ; preds = %50
  call void @llvm.lifetime.start.p0(i64 8, ptr %10) #8
  %55 = load i32, ptr %7, align 4
  %56 = sext i32 %55 to i64
  %57 = getelementptr inbounds [3 x [5 x [8 x i64]]], ptr getelementptr inbounds nuw (%struct.PgStat_PendingIO, ptr @PendingIOStats, i32 0, i32 1), i64 0, i64 %56
  %58 = load i32, ptr %8, align 4
  %59 = sext i32 %58 to i64
  %60 = getelementptr inbounds [5 x [8 x i64]], ptr %57, i64 0, i64 %59
  %61 = load i32, ptr %9, align 4
  %62 = sext i32 %61 to i64
  %63 = getelementptr inbounds [8 x i64], ptr %60, i64 0, i64 %62
  %64 = load i64, ptr %63, align 8
  %65 = load ptr, ptr %5, align 8
  %66 = getelementptr inbounds nuw %struct.PgStat_BktypeIO, ptr %65, i32 0, i32 1
  %67 = load i32, ptr %7, align 4
  %68 = sext i32 %67 to i64
  %69 = getelementptr inbounds [3 x [5 x [8 x i64]]], ptr %66, i64 0, i64 %68
  %70 = load i32, ptr %8, align 4
  %71 = sext i32 %70 to i64
  %72 = getelementptr inbounds [5 x [8 x i64]], ptr %69, i64 0, i64 %71
  %73 = load i32, ptr %9, align 4
  %74 = sext i32 %73 to i64
  %75 = getelementptr inbounds [8 x i64], ptr %72, i64 0, i64 %74
  %76 = load i64, ptr %75, align 8
  %77 = add i64 %76, %64
  store i64 %77, ptr %75, align 8
  %78 = load i32, ptr %7, align 4
  %79 = sext i32 %78 to i64
  %80 = getelementptr inbounds [3 x [5 x [8 x i64]]], ptr @PendingIOStats, i64 0, i64 %79
  %81 = load i32, ptr %8, align 4
  %82 = sext i32 %81 to i64
  %83 = getelementptr inbounds [5 x [8 x i64]], ptr %80, i64 0, i64 %82
  %84 = load i32, ptr %9, align 4
  %85 = sext i32 %84 to i64
  %86 = getelementptr inbounds [8 x i64], ptr %83, i64 0, i64 %85
  %87 = load i64, ptr %86, align 8
  %88 = load ptr, ptr %5, align 8
  %89 = getelementptr inbounds nuw %struct.PgStat_BktypeIO, ptr %88, i32 0, i32 0
  %90 = load i32, ptr %7, align 4
  %91 = sext i32 %90 to i64
  %92 = getelementptr inbounds [3 x [5 x [8 x i64]]], ptr %89, i64 0, i64 %91
  %93 = load i32, ptr %8, align 4
  %94 = sext i32 %93 to i64
  %95 = getelementptr inbounds [5 x [8 x i64]], ptr %92, i64 0, i64 %94
  %96 = load i32, ptr %9, align 4
  %97 = sext i32 %96 to i64
  %98 = getelementptr inbounds [8 x i64], ptr %95, i64 0, i64 %97
  %99 = load i64, ptr %98, align 8
  %100 = add i64 %99, %87
  store i64 %100, ptr %98, align 8
  %101 = load i32, ptr %7, align 4
  %102 = sext i32 %101 to i64
  %103 = getelementptr inbounds [3 x [5 x [8 x %struct.instr_time]]], ptr getelementptr inbounds nuw (%struct.PgStat_PendingIO, ptr @PendingIOStats, i32 0, i32 2), i64 0, i64 %102
  %104 = load i32, ptr %8, align 4
  %105 = sext i32 %104 to i64
  %106 = getelementptr inbounds [5 x [8 x %struct.instr_time]], ptr %103, i64 0, i64 %105
  %107 = load i32, ptr %9, align 4
  %108 = sext i32 %107 to i64
  %109 = getelementptr inbounds [8 x %struct.instr_time], ptr %106, i64 0, i64 %108
  call void @llvm.memcpy.p0.p0.i64(ptr align 8 %10, ptr align 8 %109, i64 8, i1 false)
  %110 = getelementptr inbounds nuw %struct.instr_time, ptr %10, i32 0, i32 0
  %111 = load i64, ptr %110, align 8
  %112 = sdiv i64 %111, 1000
  %113 = load ptr, ptr %5, align 8
  %114 = getelementptr inbounds nuw %struct.PgStat_BktypeIO, ptr %113, i32 0, i32 2
  %115 = load i32, ptr %7, align 4
  %116 = sext i32 %115 to i64
  %117 = getelementptr inbounds [3 x [5 x [8 x i64]]], ptr %114, i64 0, i64 %116
  %118 = load i32, ptr %8, align 4
  %119 = sext i32 %118 to i64
  %120 = getelementptr inbounds [5 x [8 x i64]], ptr %117, i64 0, i64 %119
  %121 = load i32, ptr %9, align 4
  %122 = sext i32 %121 to i64
  %123 = getelementptr inbounds [8 x i64], ptr %120, i64 0, i64 %122
  %124 = load i64, ptr %123, align 8
  %125 = add i64 %124, %112
  store i64 %125, ptr %123, align 8
  call void @llvm.lifetime.end.p0(i64 8, ptr %10) #8
  br label %126

126:                                              ; preds = %54
  %127 = load i32, ptr %9, align 4
  %128 = add i32 %127, 1
  store i32 %128, ptr %9, align 4
  br label %50, !llvm.loop !10

129:                                              ; preds = %53
  br label %130

130:                                              ; preds = %129
  %131 = load i32, ptr %8, align 4
  %132 = add i32 %131, 1
  store i32 %132, ptr %8, align 4
  br label %45, !llvm.loop !11

133:                                              ; preds = %48
  br label %134

134:                                              ; preds = %133
  %135 = load i32, ptr %7, align 4
  %136 = add i32 %135, 1
  store i32 %136, ptr %7, align 4
  br label %40, !llvm.loop !12

137:                                              ; preds = %43
  %138 = load ptr, ptr %4, align 8
  call void @LWLockRelease(ptr noundef %138)
  call void @llvm.memset.p0.i64(ptr align 8 @PendingIOStats, i8 0, i64 2880, i1 false)
  store i8 0, ptr @have_iostats, align 1
  store i1 false, ptr %2, align 1
  store i32 1, ptr %6, align 4
  br label %139

139:                                              ; preds = %137, %37, %14
  call void @llvm.lifetime.end.p0(i64 8, ptr %5) #8
  call void @llvm.lifetime.end.p0(i64 8, ptr %4) #8
  %140 = load i1, ptr %2, align 1
  ret i1 %140
}