; Function Attrs: nounwind uwtable
define dso_local noundef zeroext i1 @pgstat_io_flush_cb(i1 noundef zeroext %0) local_unnamed_addr #3 {
  %.b34 = load i1, ptr @have_iostats, align 1
  br i1 %.b34, label %2, label %36

2:                                                ; preds = %1
  %3 = load ptr, ptr @pgStatLocal, align 8
  %4 = getelementptr inbounds nuw i8, ptr %3, i64 616
  %5 = load i32, ptr @MyBackendType, align 4
  %6 = zext i32 %5 to i64
  %7 = getelementptr inbounds nuw [17 x %struct.LWLock], ptr %4, i64 0, i64 %6
  %8 = getelementptr inbounds nuw i8, ptr %3, i64 896
  %9 = getelementptr inbounds nuw [17 x %struct.PgStat_BktypeIO], ptr %8, i64 0, i64 %6
  br i1 %0, label %12, label %10

10:                                               ; preds = %2
  %11 = tail call zeroext i1 @LWLockAcquire(ptr noundef nonnull %7, i32 noundef 0) #11
  br label %14

12:                                               ; preds = %2
  %13 = tail call zeroext i1 @LWLockConditionalAcquire(ptr noundef nonnull %7, i32 noundef 0) #11
  br i1 %13, label %14, label %36

14:                                               ; preds = %12, %10
  %15 = getelementptr inbounds nuw i8, ptr %9, i64 960
  %16 = getelementptr inbounds nuw i8, ptr %9, i64 1920
  br label %.preheader35

.preheader35:                                     ; preds = %14, %18
  %indvars.iv44 = phi i64 [ 0, %14 ], [ %indvars.iv.next45, %18 ]
  br label %.preheader

17:                                               ; preds = %18
  tail call void @LWLockRelease(ptr noundef nonnull %7) #11
  tail call void @llvm.memset.p0.i64(ptr noundef nonnull align 8 dereferenceable(2880) @PendingIOStats, i8 0, i64 2880, i1 false)
  store i1 false, ptr @have_iostats, align 1
  br label %36

.preheader:                                       ; preds = %.preheader35, %19
  %indvars.iv40 = phi i64 [ 0, %.preheader35 ], [ %indvars.iv.next41, %19 ]
  br label %20

18:                                               ; preds = %19
  %indvars.iv.next45 = add nuw nsw i64 %indvars.iv44, 1
  %exitcond47.not = icmp eq i64 %indvars.iv.next45, 3
  br i1 %exitcond47.not, label %17, label %.preheader35, !llvm.loop !10

19:                                               ; preds = %20
  %indvars.iv.next41 = add nuw nsw i64 %indvars.iv40, 1
  %exitcond43.not = icmp eq i64 %indvars.iv.next41, 5
  br i1 %exitcond43.not, label %18, label %.preheader, !llvm.loop !11

20:                                               ; preds = %.preheader, %20
  %indvars.iv = phi i64 [ 0, %.preheader ], [ %indvars.iv.next, %20 ]
  %21 = getelementptr inbounds nuw [3 x [5 x [8 x i64]]], ptr getelementptr inbounds nuw (i8, ptr @PendingIOStats, i64 960), i64 0, i64 %indvars.iv44, i64 %indvars.iv40, i64 %indvars.iv
  %22 = load i64, ptr %21, align 8
  %23 = getelementptr inbounds nuw [3 x [5 x [8 x i64]]], ptr %15, i64 0, i64 %indvars.iv44, i64 %indvars.iv40, i64 %indvars.iv
  %24 = load i64, ptr %23, align 8
  %25 = add i64 %24, %22
  store i64 %25, ptr %23, align 8
  %26 = getelementptr inbounds nuw [3 x [5 x [8 x i64]]], ptr @PendingIOStats, i64 0, i64 %indvars.iv44, i64 %indvars.iv40, i64 %indvars.iv
  %27 = load i64, ptr %26, align 8
  %28 = getelementptr inbounds nuw [3 x [5 x [8 x i64]]], ptr %9, i64 0, i64 %indvars.iv44, i64 %indvars.iv40, i64 %indvars.iv
  %29 = load i64, ptr %28, align 8
  %30 = add i64 %29, %27
  store i64 %30, ptr %28, align 8
  %31 = getelementptr inbounds nuw [3 x [5 x [8 x %struct.instr_time]]], ptr getelementptr inbounds nuw (i8, ptr @PendingIOStats, i64 1920), i64 0, i64 %indvars.iv44, i64 %indvars.iv40, i64 %indvars.iv
  %.sroa.0.0.copyload = load i64, ptr %31, align 8
  %32 = sdiv i64 %.sroa.0.0.copyload, 1000
  %33 = getelementptr inbounds nuw [3 x [5 x [8 x i64]]], ptr %16, i64 0, i64 %indvars.iv44, i64 %indvars.iv40, i64 %indvars.iv
  %34 = load i64, ptr %33, align 8
  %35 = add i64 %34, %32
  store i64 %35, ptr %33, align 8
  %indvars.iv.next = add nuw nsw i64 %indvars.iv, 1
  %exitcond.not = icmp eq i64 %indvars.iv.next, 8
  br i1 %exitcond.not, label %19, label %20, !llvm.loop !12

36:                                               ; preds = %12, %1, %17
  %.0 = phi i1 [ false, %17 ], [ false, %1 ], [ true, %12 ]
  ret i1 %.0
}